; Function Attrs: nounwind uwtable
define ptr @l_Lake_Toml_mkSimpleTable(ptr noundef readonly captures(none) %0) local_unnamed_addr #2 {
lean_nat_lt.exit:
  %1 = getelementptr i8, ptr %0, i64 8
  %.val = load i64, ptr %1, align 8, !tbaa !15
  %.mask = and i64 %.val, 9223372036854775807
  %.not = icmp eq i64 %.mask, 0
  %2 = load ptr, ptr @l_Lake_Toml_elabStdTable___lambda__1___closed__2, align 8, !tbaa !9
  br i1 %.not, label %lean_dec.exit19, label %lean_dec.exit

lean_dec.exit:                                    ; preds = %lean_nat_lt.exit
  %3 = tail call ptr @l_Array_foldlMUnsafe_fold___at_Lake_Toml_mkSimpleTable___spec__1(ptr noundef nonnull %0, i64 noundef 0, i64 noundef %.mask, ptr noundef %2)
  br label %lean_dec.exit19

lean_dec.exit19:                                  ; preds = %lean_nat_lt.exit, %lean_dec.exit
  %.0 = phi ptr [ %3, %lean_dec.exit ], [ %2, %lean_nat_lt.exit ]
  ret ptr %.0
}